; Function Attrs: nounwind uwtable
define void @Abc_NodeInvUpdateObjFanoutPolarity(ptr noundef %0, ptr noundef %1) local_unnamed_addr #2 {
  %3 = getelementptr i8, ptr %1, i64 20
  %.val.i = load i32, ptr %3, align 4
  %4 = and i32 %.val.i, 15
  %.not.i = icmp eq i32 %4, 7
  br i1 %.not.i, label %Abc_SclObjIsBufInv.exit, label %Abc_SclObjIsBufInv.exit.thread

Abc_SclObjIsBufInv.exit:                          ; preds = %2
  %5 = getelementptr i8, ptr %1, i64 28
  %.val2.i = load i32, ptr %5, align 4, !tbaa !28
  %.not = icmp eq i32 %.val2.i, 1
  br i1 %.not, label %6, label %Abc_SclObjIsBufInv.exit.thread

6:                                                ; preds = %Abc_SclObjIsBufInv.exit
  tail call void @Abc_NodeInvUpdateFanPolarity(ptr noundef nonnull %1)
  br label %16

Abc_SclObjIsBufInv.exit.thread:                   ; preds = %2, %Abc_SclObjIsBufInv.exit
  %7 = tail call i32 @Abc_NodeFindFanin(ptr noundef nonnull %1, ptr noundef %0) #17
  %.val = load ptr, ptr %1, align 8, !tbaa !31
  %8 = getelementptr i8, ptr %1, i64 16
  %.val5 = load i32, ptr %8, align 8, !tbaa !34
  %9 = getelementptr i8, ptr %.val, i64 384
  %.val.val = load ptr, ptr %9, align 8, !tbaa !44
  %10 = getelementptr i8, ptr %.val.val, i64 8
  %.val.val.val = load ptr, ptr %10, align 8, !tbaa !45
  %11 = shl nuw i32 1, %7
  %12 = sext i32 %.val5 to i64
  %13 = getelementptr inbounds i32, ptr %.val.val.val, i64 %12
  %14 = load i32, ptr %13, align 4, !tbaa !33
  %15 = xor i32 %14, %11
  store i32 %15, ptr %13, align 4, !tbaa !33
  br label %16

16:                                               ; preds = %Abc_SclObjIsBufInv.exit.thread, %6
  ret void
}